; Function Attrs: mustprogress nofree norecurse nosync nounwind willreturn memory(argmem: readwrite) uwtable
define noundef zeroext i1 @_ZN6duckdb32utf8proc_grapheme_break_statefulEiiPi(i32 noundef %0, i32 noundef %1, ptr noundef captures(address_is_null) %2) local_unnamed_addr #1 {
  %or.cond.i = icmp ugt i32 %0, 1114111
  br i1 %or.cond.i, label %_ZN6duckdb21utf8proc_get_propertyEi.exit, label %4

4:                                                ; preds = %3
  %5 = lshr i32 %0, 8
  %6 = zext nneg i32 %5 to i64
  %7 = getelementptr inbounds nuw [4352 x i16], ptr @_ZN6duckdbL20utf8proc_stage1tableE, i64 0, i64 %6
  %8 = load i16, ptr %7, align 2, !tbaa !8
  %9 = zext i16 %8 to i32
  %10 = and i32 %0, 255
  %11 = add nuw nsw i32 %10, %9
  %12 = zext nneg i32 %11 to i64
  %13 = getelementptr inbounds nuw [44800 x i16], ptr @_ZN6duckdbL20utf8proc_stage2tableE, i64 0, i64 %12
  %14 = load i16, ptr %13, align 2, !tbaa !8
  %15 = zext i16 %14 to i64
  %16 = getelementptr inbounds nuw %"struct.duckdb::utf8proc_property_struct", ptr @_ZN6duckdbL19utf8proc_propertiesE, i64 %15
  br label %_ZN6duckdb21utf8proc_get_propertyEi.exit

_ZN6duckdb21utf8proc_get_propertyEi.exit:         ; preds = %3, %4
  %17 = phi ptr [ %16, %4 ], [ @_ZN6duckdbL19utf8proc_propertiesE, %3 ]
  %or.cond.i6 = icmp ugt i32 %1, 1114111
  br i1 %or.cond.i6, label %_ZN6duckdb21utf8proc_get_propertyEi.exit7, label %18

18:                                               ; preds = %_ZN6duckdb21utf8proc_get_propertyEi.exit
  %19 = lshr i32 %1, 8
  %20 = zext nneg i32 %19 to i64
  %21 = getelementptr inbounds nuw [4352 x i16], ptr @_ZN6duckdbL20utf8proc_stage1tableE, i64 0, i64 %20
  %22 = load i16, ptr %21, align 2, !tbaa !8
  %23 = zext i16 %22 to i32
  %24 = and i32 %1, 255
  %25 = add nuw nsw i32 %24, %23
  %26 = zext nneg i32 %25 to i64
  %27 = getelementptr inbounds nuw [44800 x i16], ptr @_ZN6duckdbL20utf8proc_stage2tableE, i64 0, i64 %26
  %28 = load i16, ptr %27, align 2, !tbaa !8
  %29 = zext i16 %28 to i64
  %30 = getelementptr inbounds nuw %"struct.duckdb::utf8proc_property_struct", ptr @_ZN6duckdbL19utf8proc_propertiesE, i64 %29
  br label %_ZN6duckdb21utf8proc_get_propertyEi.exit7

_ZN6duckdb21utf8proc_get_propertyEi.exit7:        ; preds = %_ZN6duckdb21utf8proc_get_propertyEi.exit, %18
  %31 = phi ptr [ %30, %18 ], [ @_ZN6duckdbL19utf8proc_propertiesE, %_ZN6duckdb21utf8proc_get_propertyEi.exit ]
  %32 = getelementptr inbounds nuw i8, ptr %17, i64 20
  %33 = load i16, ptr %32, align 4
  %34 = lshr i16 %33, 8
  %35 = and i16 %34, 63
  %36 = zext nneg i16 %35 to i32
  %37 = getelementptr inbounds nuw i8, ptr %31, i64 20
  %38 = load i16, ptr %37, align 4
  %39 = lshr i16 %38, 8
  %40 = and i16 %39, 63
  %41 = zext nneg i16 %40 to i32
  %42 = lshr i16 %33, 14
  %43 = zext nneg i16 %42 to i32
  %44 = lshr i16 %38, 14
  %45 = zext nneg i16 %44 to i32
  %46 = tail call fastcc noundef zeroext i1 @_ZN6duckdbL23grapheme_break_extendedEiiiiPi(i32 noundef %36, i32 noundef %41, i32 noundef %43, i32 noundef %45, ptr noundef %2)
  ret i1 %46
}